; Function Attrs: mustprogress nofree norecurse nosync nounwind willreturn memory(argmem: read) uwtable
define noundef zeroext i1 @llama_model_is_recurrent(ptr noundef readonly captures(none) %0) local_unnamed_addr #13 {
  %2 = getelementptr inbounds nuw i8, ptr %0, i64 4
  %3 = load i32, ptr %2, align 4, !tbaa !81
  %4 = icmp ult i32 %3, 53
  %switch.cast = zext nneg i32 %3 to i53
  %switch.downshift = lshr i53 -2251795518717952, %switch.cast
  %switch.masked = trunc i53 %switch.downshift to i1
  %.0 = select i1 %4, i1 %switch.masked, i1 false
  ret i1 %.0
}